target datalayout = "e-m:e-p270:32:32-p271:32:32-p272:64:64-i64:64-i128:128-f80:128-n8:16:32:64-S128"
target triple = "x86_64-pc-linux-gnu"

%struct.SingleChannelElement = type { %struct.IndividualChannelStream, %struct.TemporalNoiseShaping, %struct.Pulse, [128 x i32], [128 x i32], [128 x i32], [128 x i8], [128 x i8], [128 x float], [128 x float], [4 x i8], [1024 x float], [1024 x float], [2048 x float], [672 x %struct.PredictorState] }
%struct.IndividualChannelStream = type { i8, [2 x i32], [2 x i8], [8 x i8], ptr, ptr, i32, i32, i32, [8 x i8], float }
%struct.TemporalNoiseShaping = type { i32, [8 x i32], [8 x [4 x i32]], [8 x [4 x i32]], [8 x [4 x i32]], [8 x [4 x [20 x i32]]], [8 x [4 x [20 x float]]] }
%struct.Pulse = type { i32, i32, [4 x i32], [4 x i32] }
%struct.PredictorState = type { float, float, float, float, float, float, float, float }
%struct.AVFloatDSPContext = type { ptr, ptr, ptr, ptr, ptr, ptr, ptr, ptr, ptr, ptr, ptr, ptr }

@ff_aac_kbd_short_128 = external global [128 x float], align 16
@ff_sine_128 = external global [128 x float], align 16

; Function Attrs: nounwind uwtable
define internal void @apply_eight_short_window(ptr noundef %0, ptr noundef %1, ptr noundef %2) #0 {
  %4 = alloca ptr, align 8
  %5 = alloca ptr, align 8
  %6 = alloca ptr, align 8
  %7 = alloca ptr, align 8
  %8 = alloca ptr, align 8
  %9 = alloca ptr, align 8
  %10 = alloca ptr, align 8
  %11 = alloca i32, align 4
  store ptr %0, ptr %4, align 8, !tbaa !237
  store ptr %1, ptr %5, align 8, !tbaa !103
  store ptr %2, ptr %6, align 8, !tbaa !108
  call void @llvm.lifetime.start.p0(i64 8, ptr %7) #11
  %12 = load ptr, ptr %5, align 8, !tbaa !103
  %13 = getelementptr inbounds nuw %struct.SingleChannelElement, ptr %12, i32 0, i32 0
  %14 = getelementptr inbounds nuw %struct.IndividualChannelStream, ptr %13, i32 0, i32 2
  %15 = getelementptr inbounds [2 x i8], ptr %14, i64 0, i64 0
  %16 = load i8, ptr %15, align 4, !tbaa !69
  %17 = zext i8 %16 to i32
  %18 = icmp ne i32 %17, 0
  %19 = select i1 %18, ptr @ff_aac_kbd_short_128, ptr @ff_sine_128
  store ptr %19, ptr %7, align 8, !tbaa !108
  call void @llvm.lifetime.start.p0(i64 8, ptr %8) #11
  %20 = load ptr, ptr %5, align 8, !tbaa !103
  %21 = getelementptr inbounds nuw %struct.SingleChannelElement, ptr %20, i32 0, i32 0
  %22 = getelementptr inbounds nuw %struct.IndividualChannelStream, ptr %21, i32 0, i32 2
  %23 = getelementptr inbounds [2 x i8], ptr %22, i64 0, i64 1
  %24 = load i8, ptr %23, align 1, !tbaa !69
  %25 = zext i8 %24 to i32
  %26 = icmp ne i32 %25, 0
  %27 = select i1 %26, ptr @ff_aac_kbd_short_128, ptr @ff_sine_128
  store ptr %27, ptr %8, align 8, !tbaa !108
  call void @llvm.lifetime.start.p0(i64 8, ptr %9) #11
  %28 = load ptr, ptr %6, align 8, !tbaa !108
  %29 = getelementptr inbounds float, ptr %28, i64 448
  store ptr %29, ptr %9, align 8, !tbaa !108
  call void @llvm.lifetime.start.p0(i64 8, ptr %10) #11
  %30 = load ptr, ptr %5, align 8, !tbaa !103
  %31 = getelementptr inbounds nuw %struct.SingleChannelElement, ptr %30, i32 0, i32 13
  %32 = getelementptr inbounds [2048 x float], ptr %31, i64 0, i64 0
  store ptr %32, ptr %10, align 8, !tbaa !108
  call void @llvm.lifetime.start.p0(i64 4, ptr %11) #11
  store i32 0, ptr %11, align 4, !tbaa !55
  br label %33

33:                                               ; preds = %62, %3
  %34 = load i32, ptr %11, align 4, !tbaa !55
  %35 = icmp slt i32 %34, 8
  br i1 %35, label %36, label %65

36:                                               ; preds = %33
  %37 = load ptr, ptr %4, align 8, !tbaa !237
  %38 = getelementptr inbounds nuw %struct.AVFloatDSPContext, ptr %37, i32 0, i32 0
  %39 = load ptr, ptr %38, align 8, !tbaa !238
  %40 = load ptr, ptr %10, align 8, !tbaa !108
  %41 = load ptr, ptr %9, align 8, !tbaa !108
  %42 = load i32, ptr %11, align 4, !tbaa !55
  %43 = icmp ne i32 %42, 0
  br i1 %43, label %44, label %46

44:                                               ; preds = %36
  %45 = load ptr, ptr %8, align 8, !tbaa !108
  br label %48

46:                                               ; preds = %36
  %47 = load ptr, ptr %7, align 8, !tbaa !108
  br label %48

48:                                               ; preds = %46, %44
  %49 = phi ptr [ %45, %44 ], [ %47, %46 ]
  call void %39(ptr noundef %40, ptr noundef %41, ptr noundef %49, i32 noundef 128)
  %50 = load ptr, ptr %10, align 8, !tbaa !108
  %51 = getelementptr inbounds float, ptr %50, i64 128
  store ptr %51, ptr %10, align 8, !tbaa !108
  %52 = load ptr, ptr %9, align 8, !tbaa !108
  %53 = getelementptr inbounds float, ptr %52, i64 128
  store ptr %53, ptr %9, align 8, !tbaa !108
  %54 = load ptr, ptr %4, align 8, !tbaa !237
  %55 = getelementptr inbounds nuw %struct.AVFloatDSPContext, ptr %54, i32 0, i32 7
  %56 = load ptr, ptr %55, align 8, !tbaa !240
  %57 = load ptr, ptr %10, align 8, !tbaa !108
  %58 = load ptr, ptr %9, align 8, !tbaa !108
  %59 = load ptr, ptr %7, align 8, !tbaa !108
  call void %56(ptr noundef %57, ptr noundef %58, ptr noundef %59, i32 noundef 128)
  %60 = load ptr, ptr %10, align 8, !tbaa !108
  %61 = getelementptr inbounds float, ptr %60, i64 128
  store ptr %61, ptr %10, align 8, !tbaa !108
  br label %62

62:                                               ; preds = %48
  %63 = load i32, ptr %11, align 4, !tbaa !55
  %64 = add nsw i32 %63, 1
  store i32 %64, ptr %11, align 4, !tbaa !55
  br label %33, !llvm.loop !241

65:                                               ; preds = %33
  call void @llvm.lifetime.end.p0(i64 4, ptr %11) #11
  call void @llvm.lifetime.end.p0(i64 8, ptr %10) #11
  call void @llvm.lifetime.end.p0(i64 8, ptr %9) #11
  call void @llvm.lifetime.end.p0(i64 8, ptr %8) #11
  call void @llvm.lifetime.end.p0(i64 8, ptr %7) #11
  ret void
}