; Function Attrs: nounwind uwtable
define internal void @apply_eight_short_window(ptr noundef readonly captures(none) %0, ptr noundef %1, ptr noundef %2) #3 {
  %4 = getelementptr inbounds nuw i8, ptr %1, i64 12
  %5 = load i8, ptr %4, align 4, !tbaa !66
  %.not = icmp eq i8 %5, 0
  %6 = select i1 %.not, ptr @ff_sine_128, ptr @ff_aac_kbd_short_128
  %7 = getelementptr inbounds nuw i8, ptr %1, i64 13
  %8 = load i8, ptr %7, align 1, !tbaa !66
  %.not20 = icmp eq i8 %8, 0
  %9 = select i1 %.not20, ptr @ff_sine_128, ptr @ff_aac_kbd_short_128
  %10 = getelementptr inbounds nuw i8, ptr %2, i64 1792
  %11 = getelementptr inbounds nuw i8, ptr %1, i64 16656
  %12 = getelementptr inbounds nuw i8, ptr %0, i64 56
  br label %13

13:                                               ; preds = %3, %13
  %.024 = phi i32 [ 0, %3 ], [ %20, %13 ]
  %.01823 = phi ptr [ %11, %3 ], [ %19, %13 ]
  %.01922 = phi ptr [ %10, %3 ], [ %17, %13 ]
  %14 = load ptr, ptr %0, align 8, !tbaa !227
  %.not21 = icmp eq i32 %.024, 0
  %15 = select i1 %.not21, ptr %6, ptr %9
  tail call void %14(ptr noundef nonnull %.01823, ptr noundef nonnull %.01922, ptr noundef nonnull %15, i32 noundef 128) #11
  %16 = getelementptr inbounds nuw i8, ptr %.01823, i64 512
  %17 = getelementptr inbounds nuw i8, ptr %.01922, i64 512
  %18 = load ptr, ptr %12, align 8, !tbaa !229
  tail call void %18(ptr noundef nonnull %16, ptr noundef nonnull %17, ptr noundef nonnull %6, i32 noundef 128) #11
  %19 = getelementptr inbounds nuw i8, ptr %.01823, i64 1024
  %20 = add nuw nsw i32 %.024, 1
  %exitcond.not = icmp eq i32 %20, 8
  br i1 %exitcond.not, label %21, label %13, !llvm.loop !230

21:                                               ; preds = %13
  ret void
}